; generated by Component: ARM Compiler 5.06 update 6 (build 750) Tool: ArmCC [4d3637]
; commandline ArmCC [--c99 --thumb --list --split_sections --debug -c --asm --interleave -o.\obj\bim_uart.o --asm_dir=.\lst\ --list_dir=.\lst\ --depend=.\obj\bim_uart.d --cpu=ARM9E --apcs=interwork -O3 --diag_suppress=9931 -I.\config -I.\app -I..\..\libs -I..\..\sdk\plactform\core_modules\src -I..\..\sdk\plactform\arch -I..\..\sdk\plactform\arch\compiler -I..\..\sdk\plactform\arch\ll -I..\..\sdk\plactform\core_modules\common\api -I..\..\sdk\plactform\arch\boot -I..\..\sdk\plactform\core_modules\dbg\api -I..\..\sdk\plactform\core_modules\rf\api -I..\..\sdk\plactform\core_modules\ecc_p256\api -I..\..\sdk\plactform\arch\main -I..\..\sdk\plactform\core_modules\util -I..\..\sdk\plactform\driver\pwm -I..\..\sdk\plactform\driver\adc -I..\..\sdk\plactform\driver\audio -I..\..\sdk\plactform\driver\wdt -I..\..\sdk\plactform\driver\rtc -I..\..\sdk\plactform\driver\i2c -I..\..\sdk\plactform\driver\utc -I..\..\sdk\plactform\driver\ir -I..\..\sdk\plactform\driver\spi -I..\..\sdk\plactform\driver\plf -I..\..\sdk\plactform\driver\counter -I..\..\sdk\plactform\driver\gpio -I..\..\sdk\plactform\driver\intcntl -I..\..\sdk\plactform\driver\icu -I..\..\sdk\plactform\driver\intc -I..\..\sdk\plactform\driver\flash -I..\..\sdk\plactform\driver\timer -I..\..\sdk\plactform\driver\reg -I..\..\sdk\plactform\driver\uart -I..\..\sdk\plactform\driver\emi -I..\..\sdk\ble_stack\com\rwble -I..\..\sdk\ble_stack\com\rwble_hl -I..\..\sdk\ble_stack\com\rwble -I..\..\sdk\ble_stack\com\rwip\api -I..\..\sdk\ble_stack\com\rwble_hl -I..\..\sdk\ble_stack\src -I..\..\sdk\plactform\reg -I..\..\sdk\plactform\driver\syscntl -I..\..\sdk\plactform\rom\hci -I..\..\sdk\plactform\core_modules\ecc_p256\api -I..\..\sdk\ble_stack\inc -I..\..\sdk\ble_stack\inc\hci -I..\..\sdk\ble_stack\inc\h4tl -I..\..\sdk\ble_stack\inc\ke -I..\..\sdk\ble_stack\inc\nvds -I..\..\sdk\ble_stack\inc\ea -I..\..\sdk\ble_stack\inc\em -I..\..\sdk\ble_stack\inc\ahi -I..\..\sdk\ble_stack\inc\ble\hl\gap\gapc -I..\..\sdk\ble_stack\inc\ble\hl\gap\gapm -I..\..\sdk\ble_stack\inc\ble\hl\gap\smpc -I..\..\sdk\ble_stack\inc\ble\hl\gap\smpm -I..\..\sdk\ble_stack\inc\ble\hl\gatt\attc -I..\..\sdk\ble_stack\inc\ble\hl\gatt\attm -I..\..\sdk\ble_stack\inc\ble\hl\gatt\atts -I..\..\sdk\ble_stack\inc\ble\hl\gatt\gattc -I..\..\sdk\ble_stack\inc\ble\hl\gatt\gattm -I..\..\sdk\ble_stack\inc\ble\hl\l2c\l2cc -I..\..\sdk\ble_stack\inc\ble\hl\l2c\l2cm -I..\..\sdk\ble_stack\inc\ble\ll\em -I..\..\sdk\ble_stack\inc\ble\ll\llc -I..\..\sdk\ble_stack\inc\ble\ll\lld -I..\..\sdk\ble_stack\inc\ble\ll\llm -I..\..\sdk\ble_stack\com\rwip\api -I..\..\sdk\ble_stack\inc\ble\hl\gap -I..\..\sdk\ble_stack\inc\ble\hl\gatt -I..\..\sdk\ble_stack\com\prf -I..\..\sdk\ble_stack\com\profiles\dis\diss\src -I..\..\sdk\ble_stack\com\profiles\bas\bass\src -I..\..\sdk\ble_stack\com\profiles\ancs\ancsc\api -I..\..\sdk\ble_stack\com\profiles\ancs\ancsc\src -I..\..\sdk\ble_stack\com\profiles\ancs -I..\..\sdk\ble_stack\com\profiles\FCC0\api -I..\..\sdk\ble_stack\com\profiles\FCC0\src -I..\..\sdk\ble_stack\com\profiles\FCC0\util -I..\..\sdk\ble_stack\com\profiles\FEE0\api -I..\..\sdk\ble_stack\com\profiles\FEE0\src -I..\..\sdk\ble_stack\com\profiles\hogp -I..\..\sdk\ble_stack\com\profiles\hogp\hogpd\api -I..\..\sdk\ble_stack\com\profiles\hogp\hogpd\src -I..\..\libs -I..\..\sdk\ble_stack\com\profiles\wechat\api -I..\..\sdk\ble_stack\com\profiles\wechat\src -I.\wechat -I..\..\sdk\ble_stack\com\profiles\bas\bass -I..\..\sdk\ble_stack\com\profiles\bas\bass\api -I..\..\sdk\ble_stack\com\profiles\dis\diss -I..\..\sdk\ble_stack\com\profiles\dis\diss\api -I..\..\sdk\ble_stack\com\profiles\FFF0\api -I..\..\sdk\ble_stack\com\profiles\FFF0 -I..\..\sdk\ble_stack\com\profiles\oad\api -IC:\Keil_v5\ARM\RV31\INC -IC:\Keil_v5\ARM\CMSIS\Include -D__MICROLIB -D__UVISION_VERSION=526 --omf_browse=.\obj\bim_uart.crf app\bim_uart.c]
                          THUMB

                          AREA ||i.bim_delay_ms||, CODE, READONLY, ALIGN=1

                  bim_delay_ms PROC
;;;268    
;;;269    void bim_delay_ms(unsigned int tt)
000000  b50c              PUSH     {r2,r3,lr}
;;;270    {
000002  2100              MOVS     r1,#0
;;;271    	volatile unsigned int i, j;
;;;272    	while(tt--)
;;;273    	{
;;;274    		for (j = 0; j < 1000/10; j++)
000004  e00b              B        |L1.30|
                  |L1.6|
000006  9101              STR      r1,[sp,#4]
                  |L1.8|
;;;275    		{
;;;276    			for (i = 0; i < 12; i++)
000008  9100              STR      r1,[sp,#0]
                  |L1.10|
00000a  9a00              LDR      r2,[sp,#0]
00000c  1c52              ADDS     r2,r2,#1
00000e  2a0c              CMP      r2,#0xc
000010  9200              STR      r2,[sp,#0]
000012  d3fa              BCC      |L1.10|
000014  9a01              LDR      r2,[sp,#4]            ;274
000016  1c52              ADDS     r2,r2,#1              ;274
000018  2a64              CMP      r2,#0x64              ;274
00001a  9201              STR      r2,[sp,#4]            ;274
00001c  d3f4              BCC      |L1.8|
                  |L1.30|
00001e  1e40              SUBS     r0,r0,#1              ;274
000020  d2f1              BCS      |L1.6|
;;;277    			{
;;;278    				;
;;;279    			}
;;;280    		}
;;;281    	}
;;;282    }
000022  bd0c              POP      {r2,r3,pc}
;;;283    
                          ENDP


                          AREA ||i.bim_printf||, CODE, READONLY, ALIGN=1

                  bim_printf PROC
;;;147    
;;;148    void bim_printf(char *title, uint32_t v, uint8_t radix)
000000  4770              BX       lr
;;;149    {
;;;150    #if 0
;;;151    	uint8_t	tmpLen;
;;;152    	char buf[128];
;;;153    	uint32_t err;
;;;154    
;;;155    	tmpLen = strlen( (char*)title);
;;;156    	memcpy( buf, title, tmpLen );
;;;157    	err = (uint32_t)(v);
;;;158    	itoa_my( err, &buf[tmpLen], radix);
;;;159    	bim_uart_write(&buf[0]);
;;;160    #endif
;;;161    }
;;;162    
                          ENDP


                          AREA ||i.bim_uart_deinit||, CODE, READONLY, ALIGN=2

                  bim_uart_deinit PROC
;;;194    #if 1 //
;;;195    void bim_uart_deinit( void )
000000  2001              MOVS     r0,#1
;;;196    {
;;;197    	REG_AHB0_ICU_UARTCLKCON   = 0x1 ;  // disable Uart's Clocks
000002  05c1              LSLS     r1,r0,#23
000004  60c8              STR      r0,[r1,#0xc]
;;;198    
;;;199    	REG_APB5_GPIOA_CFG  &= ~((0x3<<BIT_GPIO_PULL_UP)  + (0x3<<BIT_GPIO_PERI_EN));
000006  4805              LDR      r0,|L3.28|
000008  6801              LDR      r1,[r0,#0]
00000a  4a05              LDR      r2,|L3.32|
00000c  4011              ANDS     r1,r1,r2
00000e  6001              STR      r1,[r0,#0]
;;;200    	REG_APB5_GPIOA_CFG  |= ((0x3<<BIT_GPIO_PERI_EN));
000010  6801              LDR      r1,[r0,#0]
000012  2203              MOVS     r2,#3
000014  4311              ORRS     r1,r1,r2
000016  6001              STR      r1,[r0,#0]
;;;201    
;;;202    }
000018  4770              BX       lr
;;;203    
                          ENDP

00001a  0000              DCW      0x0000
                  |L3.28|
                          DCD      0x00806500
                  |L3.32|
                          DCD      0xfffcfffc

                          AREA ||i.bim_uart_fifo_empty_getf||, CODE, READONLY, ALIGN=2

                  bim_uart_fifo_empty_getf PROC
;;;88     
;;;89     uint8_t bim_uart_fifo_empty_getf(void)
000000  4802              LDR      r0,|L4.12|
;;;90     {
;;;91     	uint32_t localVal = BIM_REG_PL_RD(0x00806308);
000002  6880              LDR      r0,[r0,#8]
;;;92     	return ((localVal & ((uint32_t)0x00020000)) >> 17);
000004  0380              LSLS     r0,r0,#14
000006  0fc0              LSRS     r0,r0,#31
;;;93     }
000008  4770              BX       lr
;;;94     
                          ENDP

00000a  0000              DCW      0x0000
                  |L4.12|
                          DCD      0x00806300

                          AREA ||i.bim_uart_init||, CODE, READONLY, ALIGN=2

                  bim_uart_init PROC
;;;163    
;;;164    void bim_uart_init(uint32_t baudrate)
000000  2001              MOVS     r0,#1
;;;165    {
;;;166    
;;;167    	unsigned int baud_divisor ;
;;;168    	REG_AHB0_ICU_UARTCLKCON   &= ~(0x1 << 0) ;  // Enable Uart's Clocks
000002  05c0              LSLS     r0,r0,#23
000004  68c1              LDR      r1,[r0,#0xc]
000006  0849              LSRS     r1,r1,#1
000008  0049              LSLS     r1,r1,#1
00000a  60c1              STR      r1,[r0,#0xc]
;;;169    	baud_divisor = 0x8a;//uart_clks/baud_rate ;
;;;170    	baud_divisor = baud_divisor-1 ;
;;;171    	REG_APB3_UART_CFG  = (baud_divisor<<8) +
00000c  490e              LDR      r1,|L5.72|
00000e  480f              LDR      r0,|L5.76|
000010  6001              STR      r1,[r0,#0]
;;;172    	                     (stop_bits   <<7) +
;;;173    	                     //(parity_mode <<6) +
;;;174    	                     //(parity_en   <<5) +
;;;175    	                     (data_len    <<3) +
;;;176    	                     (irda_mode   <<2) +
;;;177    	                     (uart_rx_en  <<1) +
;;;178    	                     uart_tx_en       ;
;;;179    	REG_APB3_UART_FIFO_CFG  = 0x00001001 ;  // Set Fifo threshold 8
000012  490f              LDR      r1,|L5.80|
000014  6041              STR      r1,[r0,#4]
;;;180    	REG_APB3_UART_INT_ENABLE = ((0x01 << 1) | (0x01 << 6) | (0x01 << 7));  //need read / stop end /rxd wake up
000016  21c2              MOVS     r1,#0xc2
000018  6101              STR      r1,[r0,#0x10]
;;;181    	REG_APB3_UART_FLOW_CFG  = 0x00000000 ;  // No Flow Control
00001a  2100              MOVS     r1,#0
00001c  6181              STR      r1,[r0,#0x18]
;;;182    	REG_APB3_UART_WAKE_CFG  =  ((0x01 << 0 )| (0x01 << 20) |  (0x01 << 21)| (0x01 << 22));  // No Wake Control
00001e  490d              LDR      r1,|L5.84|
000020  61c1              STR      r1,[r0,#0x1c]
;;;183    
;;;184    	REG_APB5_GPIOA_CFG  &= ~((0x3<<BIT_GPIO_PULL_UP)  + (0x3<<BIT_GPIO_PERI_EN));
000022  480d              LDR      r0,|L5.88|
000024  6801              LDR      r1,[r0,#0]
000026  4a0d              LDR      r2,|L5.92|
000028  4011              ANDS     r1,r1,r2
00002a  6001              STR      r1,[r0,#0]
;;;185    	REG_APB5_GPIOA_CFG  |= ((0x3<<BIT_GPIO_PULL_UP));
00002c  6802              LDR      r2,[r0,#0]
00002e  2103              MOVS     r1,#3
000030  0409              LSLS     r1,r1,#16
000032  430a              ORRS     r2,r2,r1
000034  6002              STR      r2,[r0,#0]
;;;186    	REG_APB5_GPIOA_CFG  |=   (0x3<<BIT_GPIO_OUT_EN_N);
000036  6802              LDR      r2,[r0,#0]
000038  120b              ASRS     r3,r1,#8
00003a  431a              ORRS     r2,r2,r3
00003c  6002              STR      r2,[r0,#0]
;;;187    
;;;188    	REG_APB5_GPIOA_DATA &= ~ (0x3<<BIT_GPIO_INPUT_EN);
00003e  6842              LDR      r2,[r0,#4]
000040  438a              BICS     r2,r2,r1
000042  6042              STR      r2,[r0,#4]
;;;189    
;;;190    }
000044  4770              BX       lr
;;;191    
                          ENDP

000046  0000              DCW      0x0000
                  |L5.72|
                          DCD      0x0000891b
                  |L5.76|
                          DCD      0x00806300
                  |L5.80|
                          DCD      0x00001001
                  |L5.84|
                          DCD      0x00700001
                  |L5.88|
                          DCD      0x00806500
                  |L5.92|
                          DCD      0xfffcfffc

                          AREA ||i.bim_uart_isr||, CODE, READONLY, ALIGN=2

                  bim_uart_isr PROC
;;;212    
;;;213    void bim_uart_isr(void)
000000  b5f0              PUSH     {r4-r7,lr}
;;;214    {
;;;215    	unsigned int IntStat;
;;;216    
;;;217    	IntStat = REG_APB3_UART_INT_STAT;
000002  480d              LDR      r0,|L6.56|
000004  6942              LDR      r2,[r0,#0x14]
;;;218    	if(IntStat & 0x42)
000006  2142              MOVS     r1,#0x42
000008  420a              TST      r2,r1
;;;219    	{
;;;220    		while((REG_APB3_UART_FIFO_STAT & (0x01 << 21)))
;;;221    		{
;;;222    			bim_uart_rx_buf[uart_buff_write++] = ((REG_APB3_UART_PORT>>8)&0xff);
00000a  490c              LDR      r1,|L6.60|
00000c  d012              BEQ      |L6.52|
;;;223    			if( BIM_UART0_RX_FIFO_MAX_COUNT == uart_buff_write )
00000e  2601              MOVS     r6,#1
000010  4d0b              LDR      r5,|L6.64|
000012  0276              LSLS     r6,r6,#9
000014  2700              MOVS     r7,#0
                  |L6.22|
000016  6883              LDR      r3,[r0,#8]            ;220
000018  029b              LSLS     r3,r3,#10             ;220
00001a  d50b              BPL      |L6.52|
00001c  68c3              LDR      r3,[r0,#0xc]          ;222
00001e  0a1c              LSRS     r4,r3,#8              ;222
000020  880b              LDRH     r3,[r1,#0]            ;222  ; uart_buff_write
000022  54ec              STRB     r4,[r5,r3]            ;222
000024  1c5b              ADDS     r3,r3,#1              ;222
000026  041b              LSLS     r3,r3,#16             ;222
000028  0c1b              LSRS     r3,r3,#16             ;222
00002a  42b3              CMP      r3,r6
00002c  800b              STRH     r3,[r1,#0]            ;222
00002e  d1f2              BNE      |L6.22|
;;;224    			{
;;;225    				uart_buff_write = 0;
000030  800f              STRH     r7,[r1,#0]
000032  e7f0              B        |L6.22|
                  |L6.52|
;;;226    			}
;;;227    		}
;;;228    
;;;229    	}
;;;230    	REG_APB3_UART_INT_STAT=IntStat;
000034  6142              STR      r2,[r0,#0x14]
;;;231    }
000036  bdf0              POP      {r4-r7,pc}
;;;232    
                          ENDP

                  |L6.56|
                          DCD      0x00806300
                  |L6.60|
                          DCD      ||area_number.24||
                  |L6.64|
                          DCD      ||.bss||

                          AREA ||i.bim_uart_printf||, CODE, READONLY, ALIGN=1

                  bim_uart_printf PROC
;;;53     
;;;54     int bim_uart_printf(const char *fmt,...)
000000  2000              MOVS     r0,#0
;;;55     {
;;;56     	return 0;
;;;57     }
000002  4770              BX       lr
;;;58     int bim_uart_printf_null(const char *fmt,...)
                          ENDP


                          AREA ||i.bim_uart_printf_null||, CODE, READONLY, ALIGN=1

                  bim_uart_printf_null PROC
;;;57     }
;;;58     int bim_uart_printf_null(const char *fmt,...)
000000  2000              MOVS     r0,#0
;;;59     {
;;;60     	return 0;
;;;61     }
000002  4770              BX       lr
;;;62     
                          ENDP


                          AREA ||i.bim_uart_putchar||, CODE, READONLY, ALIGN=2

                  bim_uart_putchar PROC
;;;62     
;;;63     int bim_uart_putchar(char * st)
000000  0001              MOVS     r1,r0
;;;64     {
000002  b510              PUSH     {r4,lr}
;;;65     	uint8_t num = 0;
;;;66     
;;;67     	while (*st)
;;;68     	{
;;;69     		if(UART_TX_WRITE_READY)
000004  4a07              LDR      r2,|L9.36|
000006  2000              MOVS     r0,#0                 ;65
000008  e007              B        |L9.26|
                  |L9.10|
00000a  6894              LDR      r4,[r2,#8]
00000c  02e4              LSLS     r4,r4,#11
00000e  d504              BPL      |L9.26|
;;;70     		{
;;;71     			REG_APB3_UART_PORT = *st;
000010  60d3              STR      r3,[r2,#0xc]
000012  1c40              ADDS     r0,r0,#1
;;;72     			st++;
;;;73     			num++;
000014  0600              LSLS     r0,r0,#24
000016  0e00              LSRS     r0,r0,#24
000018  1c49              ADDS     r1,r1,#1
                  |L9.26|
00001a  780b              LDRB     r3,[r1,#0]            ;67
00001c  2b00              CMP      r3,#0                 ;67
00001e  d1f4              BNE      |L9.10|
;;;74     		}
;;;75     	}
;;;76     
;;;77     	return num;
;;;78     }
000020  bd10              POP      {r4,pc}
;;;79     
                          ENDP

000022  0000              DCW      0x0000
                  |L9.36|
                          DCD      0x00806300

                          AREA ||i.bim_uart_send_byte||, CODE, READONLY, ALIGN=2

                  bim_uart_send_byte PROC
;;;94     
;;;95     void bim_uart_send_byte( char data)
000000  b500              PUSH     {lr}
;;;96     {
000002  0001              MOVS     r1,r0
                  |L10.4|
;;;97     	while (!bim_uart_fifo_empty_getf());
000004  f7fffffe          BL       bim_uart_fifo_empty_getf
000008  2800              CMP      r0,#0
00000a  d0fb              BEQ      |L10.4|
;;;98     
;;;99     	REG_APB3_UART_PORT = data ;
00000c  4801              LDR      r0,|L10.20|
00000e  60c1              STR      r1,[r0,#0xc]
;;;100    }
000010  bd00              POP      {pc}
;;;101    
                          ENDP

000012  0000              DCW      0x0000
                  |L10.20|
                          DCD      0x00806300

                          AREA ||i.bim_uart_write||, CODE, READONLY, ALIGN=1

                  bim_uart_write PROC
;;;101    
;;;102    void bim_uart_write( char *buff)
000000  4770              BX       lr
;;;103    {
;;;104    #if 0
;;;105    	uint8_t len = strlen((char*)buff);
;;;106    	while (len--)
;;;107    		bim_uart_send_byte(*buff++);
;;;108    #endif
;;;109    }
;;;110    
                          ENDP


                          AREA ||i.itoa_my||, CODE, READONLY, ALIGN=2

                  itoa_my PROC
;;;112    
;;;113    char* itoa_my(int v,char *str, int radix)
000000  b5f7              PUSH     {r0-r2,r4-r7,lr}
;;;114    {
000002  0006              MOVS     r6,r0
000004  b0a4              SUB      sp,sp,#0x90
;;;115    	char zm[37]="0123456789abcdefghijklmnopqrstuvwxyz";
000006  2228              MOVS     r2,#0x28
000008  a115              ADR      r1,|L12.96|
00000a  a819              ADD      r0,sp,#0x64
00000c  f7fffffe          BL       __aeabi_memcpy4
;;;116    	char aa[100]= {0};
000010  2164              MOVS     r1,#0x64
000012  4668              MOV      r0,sp
000014  f7fffffe          BL       __aeabi_memclr4
;;;117    
;;;118    	int sum = v;
;;;119    	char *cp = str;
;;;120    	int i = 0;
;;;121    
;;;122    	if( radix<2||radix>36 )//增加了对错误的检测
000018  9926              LDR      r1,[sp,#0x98]
00001a  9d25              LDR      r5,[sp,#0x94]
00001c  0030              MOVS     r0,r6                 ;118
00001e  2400              MOVS     r4,#0                 ;120
000020  1e89              SUBS     r1,r1,#2
000022  2923              CMP      r1,#0x23
000024  d202              BCS      |L12.44|
;;;123    	{
;;;124    		return str;
;;;125    	}
;;;126    
;;;127    	if(v <0)
000026  0001              MOVS     r1,r0
000028  466e              MOV      r6,sp                 ;116
00002a  d509              BPL      |L12.64|
                  |L12.44|
;;;128    	{
;;;129    		return str;
00002c  0028              MOVS     r0,r5
                  |L12.46|
;;;130    	}
;;;131    
;;;132    
;;;133    	while( sum > 0 )
;;;134    	{
;;;135    		aa[i++]=zm[sum%radix];
;;;136    		sum/=radix;
;;;137    	}
;;;138    
;;;139    	for(int j=i-1; j>=0; j--)
;;;140    	{
;;;141    		*cp++=aa[j];
;;;142    	}
;;;143    	*cp='\0';
;;;144    	return str;
;;;145    }
00002e  b027              ADD      sp,sp,#0x9c
000030  bdf0              POP      {r4-r7,pc}
                  |L12.50|
000032  9926              LDR      r1,[sp,#0x98]         ;135
000034  f7fffffe          BL       __aeabi_idivmod
000038  5c79              LDRB     r1,[r7,r1]            ;135
00003a  5531              STRB     r1,[r6,r4]            ;135
00003c  1c64              ADDS     r4,r4,#1              ;135
00003e  e000              B        |L12.66|
                  |L12.64|
000040  af19              ADD      r7,sp,#0x64           ;115
                  |L12.66|
000042  2800              CMP      r0,#0                 ;133
000044  dcf5              BGT      |L12.50|
000046  1e64              SUBS     r4,r4,#1              ;133
000048  d405              BMI      |L12.86|
                  |L12.74|
00004a  5d30              LDRB     r0,[r6,r4]            ;141
00004c  1e64              SUBS     r4,r4,#1              ;141
00004e  7028              STRB     r0,[r5,#0]            ;141
000050  1c6d              ADDS     r5,r5,#1              ;141
000052  2c00              CMP      r4,#0                 ;139
000054  daf9              BGE      |L12.74|
                  |L12.86|
000056  2000              MOVS     r0,#0                 ;143
000058  7028              STRB     r0,[r5,#0]            ;143
00005a  9825              LDR      r0,[sp,#0x94]         ;144
00005c  e7e7              B        |L12.46|
;;;146    
                          ENDP

00005e  0000              DCW      0x0000
                  |L12.96|
000060  30313233          DCB      "0123456789abcdefghijklmnopqrstuvwxyz",0
000064  34353637
000068  38396162
00006c  63646566
000070  6768696a
000074  6b6c6d6e
000078  6f707172
00007c  73747576
000080  7778797a
000084  00      
000085  00                DCB      0
000086  00                DCB      0
000087  00                DCB      0

                          AREA ||i.make_crc32||, CODE, READONLY, ALIGN=2

                  make_crc32 PROC
;;;259    
;;;260    uint32_t make_crc32(uint32_t crc,unsigned char *string,uint32_t size)
000000  b510              PUSH     {r4,lr}
;;;261    {
;;;262    	while(size--)
;;;263    	{
;;;264    		crc = (crc >> 8)^(crc32_table[(crc^*string++)&0xff]);
000002  4b06              LDR      r3,|L13.28|
000004  e007              B        |L13.22|
                  |L13.6|
000006  780c              LDRB     r4,[r1,#0]
000008  4044              EORS     r4,r4,r0
00000a  0624              LSLS     r4,r4,#24
00000c  0da4              LSRS     r4,r4,#22
00000e  591c              LDR      r4,[r3,r4]
000010  0a00              LSRS     r0,r0,#8
000012  4060              EORS     r0,r0,r4
000014  1c49              ADDS     r1,r1,#1
                  |L13.22|
000016  1e52              SUBS     r2,r2,#1
000018  d2f5              BCS      |L13.6|
;;;265    	}
;;;266    	return crc;
;;;267    }
00001a  bd10              POP      {r4,pc}
;;;268    
                          ENDP

                  |L13.28|
                          DCD      ||.bss||+0x200

                          AREA ||i.make_crc32_table||, CODE, READONLY, ALIGN=2

                  make_crc32_table PROC
;;;234    uint32_t crc32_table[256];
;;;235    int make_crc32_table(void)
000000  b530              PUSH     {r4,r5,lr}
;;;236    {
;;;237    	uint32_t c;
;;;238    	int i = 0;
;;;239    	int bit = 0;
;;;240    	for(i = 0; i < 256; i++)
;;;241    	{
;;;242    		c = (uint32_t)i;
;;;243    		for(bit = 0; bit < 8; bit++)
;;;244    		{
;;;245    			if(c&1)
;;;246    			{
;;;247    				c = (c>>1)^(0xEDB88320);
000002  4b0a              LDR      r3,|L14.44|
;;;248    			}
;;;249    			else
;;;250    			{
;;;251    				c = c >> 1;
;;;252    			}
;;;253    		}
;;;254    		crc32_table[i] = c;
000004  4c0a              LDR      r4,|L14.48|
000006  2100              MOVS     r1,#0                 ;238
                  |L14.8|
000008  0008              MOVS     r0,r1                 ;242
00000a  2200              MOVS     r2,#0                 ;243
                  |L14.12|
00000c  07c5              LSLS     r5,r0,#31             ;245
00000e  d002              BEQ      |L14.22|
000010  0840              LSRS     r0,r0,#1              ;247
000012  4058              EORS     r0,r0,r3              ;247
000014  e000              B        |L14.24|
                  |L14.22|
000016  0840              LSRS     r0,r0,#1              ;251
                  |L14.24|
000018  1c52              ADDS     r2,r2,#1              ;251
00001a  2a08              CMP      r2,#8                 ;243
00001c  dbf6              BLT      |L14.12|
00001e  008a              LSLS     r2,r1,#2              ;243
000020  1c49              ADDS     r1,r1,#1
000022  29ff              CMP      r1,#0xff              ;240
000024  50a0              STR      r0,[r4,r2]
000026  ddef              BLE      |L14.8|
;;;255    
;;;256    	}
;;;257    	return 0;
000028  2000              MOVS     r0,#0
;;;258    }
00002a  bd30              POP      {r4,r5,pc}
;;;259    
                          ENDP

                  |L14.44|
                          DCD      0xedb88320
                  |L14.48|
                          DCD      ||.bss||+0x200

                          AREA ||i.uart_send||, CODE, READONLY, ALIGN=2

                  uart_send PROC
;;;79     
;;;80     void uart_send(unsigned char *buff, int len)
000000  4a05              LDR      r2,|L15.24|
;;;81     {
;;;82     	while (len--)
;;;83     	{
;;;84     		while(!UART_TX_WRITE_READY);
;;;85     		REG_APB3_UART_PORT = *buff++ ;
000002  e005              B        |L15.16|
                  |L15.4|
000004  6893              LDR      r3,[r2,#8]            ;84
000006  02db              LSLS     r3,r3,#11             ;84
000008  d5fc              BPL      |L15.4|
00000a  7803              LDRB     r3,[r0,#0]
00000c  60d3              STR      r3,[r2,#0xc]
00000e  1c40              ADDS     r0,r0,#1
                  |L15.16|
000010  1e49              SUBS     r1,r1,#1
000012  d2f7              BCS      |L15.4|
;;;86     	}
;;;87     }
000014  4770              BX       lr
;;;88     
                          ENDP

000016  0000              DCW      0x0000
                  |L15.24|
                          DCD      0x00806300

                          AREA ||.bss||, DATA, NOINIT, ALIGN=2

                  bim_uart_rx_buf
                          %        512
                  crc32_table
                          %        1024

                          AREA ||area_number.18||, DATA, NOINIT, ALIGN=0

                          EXPORTAS ||area_number.18||, ||.bss||
                  bim_uart_cmd
                          %        16

                          AREA ||area_number.19||, DATA, NOINIT, ALIGN=0

                          EXPORTAS ||area_number.19||, ||.bss||
                  bim_uart_data
                          %        4104

                          AREA ||area_number.20||, DATA, NOINIT, ALIGN=0

                          EXPORTAS ||area_number.20||, ||.bss||
                  read_data
                          %        512

                          AREA ||.data||, DATA, ALIGN=0

                  uart_download_status
000000  00                DCB      0x00

                          AREA ||area_number.23||, DATA, ALIGN=0

                          EXPORTAS ||area_number.23||, ||.data||
                  erase_fenable
000000  00                DCB      0x00

                          AREA ||area_number.24||, DATA, ALIGN=1

                          EXPORTAS ||area_number.24||, ||.data||
                  uart_buff_write
000000  0000              DCB      0x00,0x00
